target datalayout = "e-m:e-p270:32:32-p271:32:32-p272:64:64-i64:64-i128:128-f80:128-n8:16:32:64-S128"
target triple = "x86_64-pc-linux-gnu"

%struct._object = type { %union.anon, ptr }
%union.anon = type { i64 }
%struct.PyVarObject = type { %struct._object, i64 }
%struct._ts = type { ptr, ptr, ptr, i64, %struct.anon, i32, i32, i32, i32, i32, i32, i32, i32, ptr, ptr, ptr, ptr, ptr, ptr, ptr, ptr, i32, ptr, i64, i64, ptr, i64, i32, ptr, ptr, ptr, i64, i64, ptr, ptr, ptr, %struct._err_stackitem, ptr, i64, ptr, ptr }
%struct.anon = type { i32 }
%struct._err_stackitem = type { ptr, ptr }
%struct.anon.5 = type { i32, i32 }
%struct._PyInterpreterFrame = type { %union._PyStackRef, ptr, %union._PyStackRef, ptr, ptr, ptr, ptr, ptr, ptr, i16, i8, i8, [1 x %union._PyStackRef] }
%union._PyStackRef = type { i64 }
%struct.PyCodeObject = type { %struct.PyVarObject, ptr, ptr, ptr, i32, i32, i32, i32, i32, i32, i32, i32, i32, i32, i32, i32, ptr, ptr, ptr, ptr, ptr, ptr, ptr, ptr, ptr, i64, ptr, i64, i32, ptr, [1 x i8] }
%union._Py_CODEUNIT = type { i16 }

@PyExc_ValueError = external global ptr, align 8
@_Py_tss_tstate = external thread_local global ptr, align 8
@.str.67 = private unnamed_addr constant [10 x i8] c"_getframe\00", align 1
@.str.118 = private unnamed_addr constant [30 x i8] c"call stack is not deep enough\00", align 1
@.str.119 = private unnamed_addr constant [14 x i8] c"sys._getframe\00", align 1
@.str.120 = private unnamed_addr constant [4 x i8] c"(O)\00", align 1

; Function Attrs: alwaysinline nounwind uwtable
define internal void @Py_INCREF(ptr noundef %0) #5 {
  %2 = alloca ptr, align 8
  %3 = alloca i32, align 4
  %4 = alloca i32, align 4
  store ptr %0, ptr %2, align 8, !tbaa !9
  call void @llvm.lifetime.start.p0(i64 4, ptr %3) #12
  %5 = load ptr, ptr %2, align 8, !tbaa !9
  %6 = getelementptr inbounds nuw %struct._object, ptr %5, i32 0, i32 0
  %7 = getelementptr inbounds nuw %struct.anon.5, ptr %6, i32 0, i32 0
  %8 = load i32, ptr %7, align 8, !tbaa !102
  store i32 %8, ptr %3, align 4, !tbaa !97
  %9 = load i32, ptr %3, align 4, !tbaa !97
  %10 = icmp slt i32 %9, 0
  br i1 %10, label %11, label %12

11:                                               ; preds = %1
  store i32 1, ptr %4, align 4
  br label %18

12:                                               ; preds = %1
  %13 = load i32, ptr %3, align 4, !tbaa !97
  %14 = add i32 %13, 1
  %15 = load ptr, ptr %2, align 8, !tbaa !9
  %16 = getelementptr inbounds nuw %struct._object, ptr %15, i32 0, i32 0
  %17 = getelementptr inbounds nuw %struct.anon.5, ptr %16, i32 0, i32 0
  store i32 %14, ptr %17, align 8, !tbaa !102
  store i32 0, ptr %4, align 4
  br label %18

18:                                               ; preds = %12, %11
  call void @llvm.lifetime.end.p0(i64 4, ptr %3) #12
  %19 = load i32, ptr %4, align 4
  switch i32 %19, label %21 [
    i32 0, label %20
    i32 1, label %20
  ]

20:                                               ; preds = %18, %18
  ret void

21:                                               ; preds = %18
  unreachable
}

; Function Attrs: inlinehint nounwind uwtable
define internal ptr @_PyFrame_GetCode(ptr noundef %0) #3 {
  %2 = alloca ptr, align 8
  %3 = alloca ptr, align 8
  store ptr %0, ptr %2, align 8, !tbaa !287
  call void @llvm.lifetime.start.p0(i64 8, ptr %3) #12
  %4 = load ptr, ptr %2, align 8, !tbaa !287
  %5 = getelementptr inbounds nuw %struct._PyInterpreterFrame, ptr %4, i32 0, i32 0
  %6 = load i64, ptr %5, align 8, !tbaa !102
  %7 = inttoptr i64 %6 to ptr
  store ptr %7, ptr %3, align 8, !tbaa !9
  %8 = load ptr, ptr %3, align 8, !tbaa !9
  call void @llvm.lifetime.end.p0(i64 8, ptr %3) #12
  ret ptr %8
}

; Function Attrs: inlinehint nounwind uwtable
define internal ptr @_PyFrame_GetBytecode(ptr noundef %0) #3 {
  %2 = alloca ptr, align 8
  store ptr %0, ptr %2, align 8, !tbaa !287
  %3 = load ptr, ptr %2, align 8, !tbaa !287
  %4 = call ptr @_PyFrame_GetCode(ptr noundef %3)
  %5 = getelementptr inbounds nuw %struct.PyCodeObject, ptr %4, i32 0, i32 30
  %6 = getelementptr inbounds [1 x i8], ptr %5, i64 0, i64 0
  ret ptr %6
}

; Function Attrs: alwaysinline nounwind uwtable
define internal i32 @_Py_IsImmortal(ptr noundef %0) #5 {
  %2 = alloca ptr, align 8
  store ptr %0, ptr %2, align 8, !tbaa !9
  %3 = load ptr, ptr %2, align 8, !tbaa !9
  %4 = getelementptr inbounds nuw %struct._object, ptr %3, i32 0, i32 0
  %5 = getelementptr inbounds nuw %struct.anon.5, ptr %4, i32 0, i32 0
  %6 = load i32, ptr %5, align 8, !tbaa !102
  %7 = icmp slt i32 %6, 0
  %8 = zext i1 %7 to i32
  ret i32 %8
}

; Function Attrs: inlinehint nounwind uwtable
define internal void @Py_XINCREF(ptr noundef %0) #3 {
  %2 = alloca ptr, align 8
  store ptr %0, ptr %2, align 8, !tbaa !9
  %3 = load ptr, ptr %2, align 8, !tbaa !9
  %4 = icmp ne ptr %3, null
  br i1 %4, label %5, label %7

5:                                                ; preds = %1
  %6 = load ptr, ptr %2, align 8, !tbaa !9
  call void @Py_INCREF(ptr noundef %6)
  br label %7

7:                                                ; preds = %5, %1
  ret void
}

; Function Attrs: inlinehint nounwind uwtable
define internal zeroext i1 @_PyFrame_IsIncomplete(ptr noundef %0) #3 {
  %2 = alloca i1, align 1
  %3 = alloca ptr, align 8
  store ptr %0, ptr %3, align 8, !tbaa !287
  %4 = load ptr, ptr %3, align 8, !tbaa !287
  %5 = getelementptr inbounds nuw %struct._PyInterpreterFrame, ptr %4, i32 0, i32 10
  %6 = load i8, ptr %5, align 2, !tbaa !296
  %7 = sext i8 %6 to i32
  %8 = icmp sge i32 %7, 3
  br i1 %8, label %9, label %10

9:                                                ; preds = %1
  store i1 true, ptr %2, align 1
  br label %31

10:                                               ; preds = %1
  %11 = load ptr, ptr %3, align 8, !tbaa !287
  %12 = getelementptr inbounds nuw %struct._PyInterpreterFrame, ptr %11, i32 0, i32 10
  %13 = load i8, ptr %12, align 2, !tbaa !296
  %14 = sext i8 %13 to i32
  %15 = icmp ne i32 %14, 1
  br i1 %15, label %16, label %29

16:                                               ; preds = %10
  %17 = load ptr, ptr %3, align 8, !tbaa !287
  %18 = getelementptr inbounds nuw %struct._PyInterpreterFrame, ptr %17, i32 0, i32 7
  %19 = load ptr, ptr %18, align 8, !tbaa !297
  %20 = load ptr, ptr %3, align 8, !tbaa !287
  %21 = call ptr @_PyFrame_GetBytecode(ptr noundef %20)
  %22 = load ptr, ptr %3, align 8, !tbaa !287
  %23 = call ptr @_PyFrame_GetCode(ptr noundef %22)
  %24 = getelementptr inbounds nuw %struct.PyCodeObject, ptr %23, i32 0, i32 28
  %25 = load i32, ptr %24, align 8, !tbaa !298
  %26 = sext i32 %25 to i64
  %27 = getelementptr %union._Py_CODEUNIT, ptr %21, i64 %26
  %28 = icmp ult ptr %19, %27
  br label %29

29:                                               ; preds = %16, %10
  %30 = phi i1 [ false, %10 ], [ %28, %16 ]
  store i1 %30, ptr %2, align 1
  br label %31

31:                                               ; preds = %29, %9
  %32 = load i1, ptr %2, align 1
  ret i1 %32
}

; Function Attrs: alwaysinline nounwind uwtable
define internal void @Py_DECREF(ptr noundef %0) #5 {
  %2 = alloca ptr, align 8
  store ptr %0, ptr %2, align 8, !tbaa !9
  %3 = load ptr, ptr %2, align 8, !tbaa !9
  %4 = call i32 @_Py_IsImmortal(ptr noundef %3)
  %5 = icmp ne i32 %4, 0
  br i1 %5, label %6, label %7

6:                                                ; preds = %1
  br label %16

7:                                                ; preds = %1
  %8 = load ptr, ptr %2, align 8, !tbaa !9
  %9 = getelementptr inbounds nuw %struct._object, ptr %8, i32 0, i32 0
  %10 = getelementptr inbounds nuw %struct.anon.5, ptr %9, i32 0, i32 0
  %11 = load i32, ptr %10, align 8, !tbaa !102
  %12 = add i32 %11, -1
  store i32 %12, ptr %10, align 8, !tbaa !102
  %13 = icmp eq i32 %12, 0
  br i1 %13, label %14, label %16

14:                                               ; preds = %7
  %15 = load ptr, ptr %2, align 8, !tbaa !9
  call void @_Py_Dealloc(ptr noundef %15)
  br label %16

16:                                               ; preds = %6, %14, %7
  ret void
}

; Function Attrs: inlinehint nounwind uwtable
define internal ptr @_Py_XNewRef(ptr noundef %0) #3 {
  %2 = alloca ptr, align 8
  store ptr %0, ptr %2, align 8, !tbaa !9
  %3 = load ptr, ptr %2, align 8, !tbaa !9
  call void @Py_XINCREF(ptr noundef %3)
  %4 = load ptr, ptr %2, align 8, !tbaa !9
  ret ptr %4
}

; Function Attrs: inlinehint nounwind uwtable
define internal ptr @_PyFrame_GetFrameObject(ptr noundef %0) #3 {
  %2 = alloca ptr, align 8
  %3 = alloca ptr, align 8
  %4 = alloca ptr, align 8
  %5 = alloca i32, align 4
  store ptr %0, ptr %3, align 8, !tbaa !287
  call void @llvm.lifetime.start.p0(i64 8, ptr %4) #12
  %6 = load ptr, ptr %3, align 8, !tbaa !287
  %7 = getelementptr inbounds nuw %struct._PyInterpreterFrame, ptr %6, i32 0, i32 6
  %8 = load ptr, ptr %7, align 8, !tbaa !294
  store ptr %8, ptr %4, align 8, !tbaa !295
  %9 = load ptr, ptr %4, align 8, !tbaa !295
  %10 = icmp ne ptr %9, null
  br i1 %10, label %11, label %13

11:                                               ; preds = %1
  %12 = load ptr, ptr %4, align 8, !tbaa !295
  store ptr %12, ptr %2, align 8
  store i32 1, ptr %5, align 4
  br label %16

13:                                               ; preds = %1
  %14 = load ptr, ptr %3, align 8, !tbaa !287
  %15 = call ptr @_PyFrame_MakeAndSetFrameObject(ptr noundef %14)
  store ptr %15, ptr %2, align 8
  store i32 1, ptr %5, align 4
  br label %16

16:                                               ; preds = %13, %11
  call void @llvm.lifetime.end.p0(i64 8, ptr %4) #12
  %17 = load ptr, ptr %2, align 8
  ret ptr %17
}

; Function Attrs: inlinehint nounwind uwtable
define internal ptr @_PyFrame_GetFirstComplete(ptr noundef %0) #3 {
  %2 = alloca ptr, align 8
  store ptr %0, ptr %2, align 8, !tbaa !287
  br label %3

3:                                                ; preds = %11, %1
  %4 = load ptr, ptr %2, align 8, !tbaa !287
  %5 = icmp ne ptr %4, null
  br i1 %5, label %6, label %9

6:                                                ; preds = %3
  %7 = load ptr, ptr %2, align 8, !tbaa !287
  %8 = call zeroext i1 @_PyFrame_IsIncomplete(ptr noundef %7)
  br label %9

9:                                                ; preds = %6, %3
  %10 = phi i1 [ false, %3 ], [ %8, %6 ]
  br i1 %10, label %11, label %15

11:                                               ; preds = %9
  %12 = load ptr, ptr %2, align 8, !tbaa !287
  %13 = getelementptr inbounds nuw %struct._PyInterpreterFrame, ptr %12, i32 0, i32 1
  %14 = load ptr, ptr %13, align 8, !tbaa !288
  store ptr %14, ptr %2, align 8, !tbaa !287
  br label %3, !llvm.loop !293

15:                                               ; preds = %9
  %16 = load ptr, ptr %2, align 8, !tbaa !287
  ret ptr %16
}

; Function Attrs: inlinehint nounwind uwtable
define internal ptr @_PyThreadState_GET() #3 {
  %1 = call align 8 ptr @llvm.threadlocal.address.p0(ptr align 8 @_Py_tss_tstate)
  %2 = load ptr, ptr %1, align 8, !tbaa !4
  ret ptr %2
}

; Function Attrs: nounwind uwtable
define internal ptr @sys__getframe_impl(ptr noundef %0, i32 noundef %1) #0 {
  %3 = alloca ptr, align 8
  %4 = alloca ptr, align 8
  %5 = alloca i32, align 4
  %6 = alloca ptr, align 8
  %7 = alloca ptr, align 8
  %8 = alloca i32, align 4
  %9 = alloca ptr, align 8
  store ptr %0, ptr %4, align 8, !tbaa !9
  store i32 %1, ptr %5, align 4, !tbaa !97
  call void @llvm.lifetime.start.p0(i64 8, ptr %6) #12
  %10 = call ptr @_PyThreadState_GET()
  store ptr %10, ptr %6, align 8, !tbaa !4
  call void @llvm.lifetime.start.p0(i64 8, ptr %7) #12
  %11 = load ptr, ptr %6, align 8, !tbaa !4
  %12 = getelementptr inbounds nuw %struct._ts, ptr %11, i32 0, i32 13
  %13 = load ptr, ptr %12, align 8, !tbaa !286
  store ptr %13, ptr %7, align 8, !tbaa !287
  %14 = load ptr, ptr %7, align 8, !tbaa !287
  %15 = icmp ne ptr %14, null
  br i1 %15, label %16, label %32

16:                                               ; preds = %2
  br label %17

17:                                               ; preds = %28, %16
  %18 = load i32, ptr %5, align 4, !tbaa !97
  %19 = icmp sgt i32 %18, 0
  br i1 %19, label %20, label %31

20:                                               ; preds = %17
  %21 = load ptr, ptr %7, align 8, !tbaa !287
  %22 = getelementptr inbounds nuw %struct._PyInterpreterFrame, ptr %21, i32 0, i32 1
  %23 = load ptr, ptr %22, align 8, !tbaa !288
  %24 = call ptr @_PyFrame_GetFirstComplete(ptr noundef %23)
  store ptr %24, ptr %7, align 8, !tbaa !287
  %25 = load ptr, ptr %7, align 8, !tbaa !287
  %26 = icmp eq ptr %25, null
  br i1 %26, label %27, label %28

27:                                               ; preds = %20
  br label %31

28:                                               ; preds = %20
  %29 = load i32, ptr %5, align 4, !tbaa !97
  %30 = add i32 %29, -1
  store i32 %30, ptr %5, align 4, !tbaa !97
  br label %17, !llvm.loop !292

31:                                               ; preds = %27, %17
  br label %32

32:                                               ; preds = %31, %2
  %33 = load ptr, ptr %7, align 8, !tbaa !287
  %34 = icmp eq ptr %33, null
  br i1 %34, label %35, label %38

35:                                               ; preds = %32
  %36 = load ptr, ptr %6, align 8, !tbaa !4
  %37 = load ptr, ptr @PyExc_ValueError, align 8, !tbaa !9
  call void @_PyErr_SetString(ptr noundef %36, ptr noundef %37, ptr noundef @.str.118)
  store ptr null, ptr %3, align 8
  store i32 1, ptr %8, align 4
  br label %54

38:                                               ; preds = %32
  call void @llvm.lifetime.start.p0(i64 8, ptr %9) #12
  %39 = load ptr, ptr %7, align 8, !tbaa !287
  %40 = call ptr @_PyFrame_GetFrameObject(ptr noundef %39)
  %41 = call ptr @_Py_XNewRef(ptr noundef %40)
  store ptr %41, ptr %9, align 8, !tbaa !9
  %42 = load ptr, ptr %9, align 8, !tbaa !9
  %43 = icmp ne ptr %42, null
  br i1 %43, label %44, label %51

44:                                               ; preds = %38
  %45 = load ptr, ptr %6, align 8, !tbaa !4
  %46 = load ptr, ptr %9, align 8, !tbaa !9
  %47 = call i32 (ptr, ptr, ptr, ...) @_PySys_Audit(ptr noundef %45, ptr noundef @.str.119, ptr noundef @.str.120, ptr noundef %46)
  %48 = icmp slt i32 %47, 0
  br i1 %48, label %49, label %51

49:                                               ; preds = %44
  %50 = load ptr, ptr %9, align 8, !tbaa !9
  call void @Py_DECREF(ptr noundef %50)
  store ptr null, ptr %3, align 8
  store i32 1, ptr %8, align 4
  br label %53

51:                                               ; preds = %44, %38
  %52 = load ptr, ptr %9, align 8, !tbaa !9
  store ptr %52, ptr %3, align 8
  store i32 1, ptr %8, align 4
  br label %53

53:                                               ; preds = %51, %49
  call void @llvm.lifetime.end.p0(i64 8, ptr %9) #12
  br label %54

54:                                               ; preds = %53, %35
  call void @llvm.lifetime.end.p0(i64 8, ptr %7) #12
  call void @llvm.lifetime.end.p0(i64 8, ptr %6) #12
  %55 = load ptr, ptr %3, align 8
  ret ptr %55
}

; Function Attrs: nounwind uwtable
define internal ptr @sys__getframe(ptr noundef %0, ptr noundef %1, i64 noundef %2) #0 {
  %4 = alloca ptr, align 8
  %5 = alloca ptr, align 8
  %6 = alloca i64, align 8
  %7 = alloca ptr, align 8
  %8 = alloca i32, align 4
  store ptr %0, ptr %4, align 8, !tbaa !9
  store ptr %1, ptr %5, align 8, !tbaa !103
  store i64 %2, ptr %6, align 8, !tbaa !204
  call void @llvm.lifetime.start.p0(i64 8, ptr %7) #12
  store ptr null, ptr %7, align 8, !tbaa !9
  call void @llvm.lifetime.start.p0(i64 4, ptr %8) #12
  store i32 0, ptr %8, align 4, !tbaa !97
  %9 = load i64, ptr %6, align 8, !tbaa !204
  %10 = icmp sle i64 0, %9
  br i1 %10, label %11, label %14

11:                                               ; preds = %3
  %12 = load i64, ptr %6, align 8, !tbaa !204
  %13 = icmp sle i64 %12, 1
  br i1 %13, label %19, label %14

14:                                               ; preds = %11, %3
  %15 = load i64, ptr %6, align 8, !tbaa !204
  %16 = call i32 @_PyArg_CheckPositional(ptr noundef @.str.67, i64 noundef %15, i64 noundef 0, i64 noundef 1)
  %17 = icmp ne i32 %16, 0
  br i1 %17, label %19, label %18

18:                                               ; preds = %14
  br label %39

19:                                               ; preds = %14, %11
  %20 = load i64, ptr %6, align 8, !tbaa !204
  %21 = icmp slt i64 %20, 1
  br i1 %21, label %22, label %23

22:                                               ; preds = %19
  br label %35

23:                                               ; preds = %19
  %24 = load ptr, ptr %5, align 8, !tbaa !103
  %25 = getelementptr ptr, ptr %24, i64 0
  %26 = load ptr, ptr %25, align 8, !tbaa !9
  %27 = call i32 @PyLong_AsInt(ptr noundef %26)
  store i32 %27, ptr %8, align 4, !tbaa !97
  %28 = load i32, ptr %8, align 4, !tbaa !97
  %29 = icmp eq i32 %28, -1
  br i1 %29, label %30, label %34

30:                                               ; preds = %23
  %31 = call ptr @PyErr_Occurred()
  %32 = icmp ne ptr %31, null
  br i1 %32, label %33, label %34

33:                                               ; preds = %30
  br label %39

34:                                               ; preds = %30, %23
  br label %35

35:                                               ; preds = %34, %22
  %36 = load ptr, ptr %4, align 8, !tbaa !9
  %37 = load i32, ptr %8, align 4, !tbaa !97
  %38 = call ptr @sys__getframe_impl(ptr noundef %36, i32 noundef %37)
  store ptr %38, ptr %7, align 8, !tbaa !9
  br label %39

39:                                               ; preds = %35, %33, %18
  %40 = load ptr, ptr %7, align 8, !tbaa !9
  call void @llvm.lifetime.end.p0(i64 4, ptr %8) #12
  call void @llvm.lifetime.end.p0(i64 8, ptr %7) #12
  ret ptr %40
}