; Function Attrs: nounwind uwtable
define internal noundef ptr @sys__getframe(ptr readnone captures(none) %0, ptr noundef readonly captures(none) %1, i64 noundef %2) #0 {
  %or.cond = icmp ult i64 %2, 2
  br i1 %or.cond, label %6, label %4

4:                                                ; preds = %3
  %5 = tail call i32 @_PyArg_CheckPositional(ptr noundef nonnull @.str.67, i64 noundef %2, i64 noundef 0, i64 noundef 1) #15
  %.not = icmp eq i32 %5, 0
  br i1 %.not, label %sys__getframe_impl.exit, label %6

6:                                                ; preds = %3, %4
  %7 = icmp slt i64 %2, 1
  br i1 %7, label %.thread, label %8

8:                                                ; preds = %6
  %9 = load ptr, ptr %1, align 8, !tbaa !93
  %10 = tail call i32 @PyLong_AsInt(ptr noundef %9) #15
  %11 = icmp eq i32 %10, -1
  br i1 %11, label %12, label %18

12:                                               ; preds = %8
  %13 = tail call ptr @PyErr_Occurred() #15
  %.not11 = icmp eq ptr %13, null
  br i1 %.not11, label %.thread, label %sys__getframe_impl.exit

.thread:                                          ; preds = %6, %12
  %14 = tail call align 8 ptr @llvm.threadlocal.address.p0(ptr align 8 @_Py_tss_tstate)
  %15 = load ptr, ptr %14, align 8, !tbaa !92
  %16 = getelementptr inbounds nuw i8, ptr %15, i64 72
  %17 = load ptr, ptr %16, align 8, !tbaa !271
  br label %43

18:                                               ; preds = %8
  %19 = tail call align 8 ptr @llvm.threadlocal.address.p0(ptr align 8 @_Py_tss_tstate)
  %20 = load ptr, ptr %19, align 8, !tbaa !92
  %21 = getelementptr inbounds nuw i8, ptr %20, i64 72
  %22 = load ptr, ptr %21, align 8, !tbaa !271
  %23 = icmp ne ptr %22, null
  %24 = icmp sgt i32 %10, 0
  %or.cond.i = and i1 %24, %23
  br i1 %or.cond.i, label %.preheader.i, label %43

.preheader.i:                                     ; preds = %18, %_PyFrame_GetFirstComplete.exit.i
  %.018.i = phi i32 [ %42, %_PyFrame_GetFirstComplete.exit.i ], [ %10, %18 ]
  %.117.i = phi ptr [ %.08.i.i, %_PyFrame_GetFirstComplete.exit.i ], [ %22, %18 ]
  %25 = getelementptr inbounds nuw i8, ptr %.117.i, i64 8
  %26 = load ptr, ptr %25, align 8, !tbaa !272
  %.not7.i.i = icmp eq ptr %26, null
  br i1 %.not7.i.i, label %.thread.i, label %.lr.ph.i.i

.lr.ph.i.i:                                       ; preds = %.preheader.i, %_PyFrame_IsIncomplete.exit.thread.i.i
  %.08.i.i = phi ptr [ %41, %_PyFrame_IsIncomplete.exit.thread.i.i ], [ %26, %.preheader.i ]
  %27 = getelementptr inbounds nuw i8, ptr %.08.i.i, i64 74
  %28 = load i8, ptr %27, align 2, !tbaa !276
  %29 = icmp sgt i8 %28, 2
  br i1 %29, label %_PyFrame_IsIncomplete.exit.thread.i.i, label %30

30:                                               ; preds = %.lr.ph.i.i
  %.not.i.i.i = icmp eq i8 %28, 1
  br i1 %.not.i.i.i, label %_PyFrame_GetFirstComplete.exit.i, label %_PyFrame_IsIncomplete.exit.i.i

_PyFrame_IsIncomplete.exit.i.i:                   ; preds = %30
  %31 = getelementptr inbounds nuw i8, ptr %.08.i.i, i64 56
  %32 = load ptr, ptr %31, align 8, !tbaa !277
  %.val7.i.i.i = load i64, ptr %.08.i.i, align 8, !tbaa !94
  %33 = inttoptr i64 %.val7.i.i.i to ptr
  %34 = getelementptr inbounds nuw i8, ptr %33, i64 208
  %35 = getelementptr inbounds nuw i8, ptr %33, i64 192
  %36 = load i32, ptr %35, align 8, !tbaa !278
  %37 = sext i32 %36 to i64
  %38 = getelementptr %union._Py_CODEUNIT, ptr %34, i64 %37
  %39 = icmp ult ptr %32, %38
  br i1 %39, label %_PyFrame_IsIncomplete.exit.thread.i.i, label %_PyFrame_GetFirstComplete.exit.i

_PyFrame_IsIncomplete.exit.thread.i.i:            ; preds = %_PyFrame_IsIncomplete.exit.i.i, %.lr.ph.i.i
  %40 = getelementptr inbounds nuw i8, ptr %.08.i.i, i64 8
  %41 = load ptr, ptr %40, align 8, !tbaa !272
  %.not.i25.i = icmp eq ptr %41, null
  br i1 %.not.i25.i, label %.thread.i, label %.lr.ph.i.i, !llvm.loop !280

_PyFrame_GetFirstComplete.exit.i:                 ; preds = %_PyFrame_IsIncomplete.exit.i.i, %30
  %42 = add nsw i32 %.018.i, -1
  %.old1.i = icmp sgt i32 %.018.i, 1
  br i1 %.old1.i, label %.preheader.i, label %.thread3.i

43:                                               ; preds = %.thread, %18
  %44 = phi ptr [ %17, %.thread ], [ %22, %18 ]
  %45 = phi ptr [ %15, %.thread ], [ %20, %18 ]
  %46 = icmp eq ptr %44, null
  br i1 %46, label %.thread.i, label %.thread3.i

.thread.i:                                        ; preds = %.preheader.i, %_PyFrame_IsIncomplete.exit.thread.i.i, %43
  %47 = phi ptr [ %45, %43 ], [ %20, %_PyFrame_IsIncomplete.exit.thread.i.i ], [ %20, %.preheader.i ]
  %48 = load ptr, ptr @PyExc_ValueError, align 8, !tbaa !93
  tail call void @_PyErr_SetString(ptr noundef %47, ptr noundef %48, ptr noundef nonnull @.str.118) #15
  br label %sys__getframe_impl.exit

.thread3.i:                                       ; preds = %_PyFrame_GetFirstComplete.exit.i, %43
  %49 = phi ptr [ %45, %43 ], [ %20, %_PyFrame_GetFirstComplete.exit.i ]
  %.0165.i = phi ptr [ %44, %43 ], [ %.08.i.i, %_PyFrame_GetFirstComplete.exit.i ]
  %50 = getelementptr inbounds nuw i8, ptr %.0165.i, i64 48
  %51 = load ptr, ptr %50, align 8, !tbaa !281
  %.not.i26.i = icmp eq ptr %51, null
  br i1 %.not.i26.i, label %_PyFrame_GetFrameObject.exit.i, label %_PyFrame_GetFrameObject.exit.thread.i

_PyFrame_GetFrameObject.exit.i:                   ; preds = %.thread3.i
  %52 = tail call ptr @_PyFrame_MakeAndSetFrameObject(ptr noundef nonnull %.0165.i) #15
  %.not.i.i27.i = icmp eq ptr %52, null
  br i1 %.not.i.i27.i, label %sys__getframe_impl.exit, label %_PyFrame_GetFrameObject.exit.thread.i

_PyFrame_GetFrameObject.exit.thread.i:            ; preds = %_PyFrame_GetFrameObject.exit.i, %.thread3.i
  %.0.i8.i = phi ptr [ %52, %_PyFrame_GetFrameObject.exit.i ], [ %51, %.thread3.i ]
  %53 = load i32, ptr %.0.i8.i, align 8, !tbaa !94
  %54 = icmp slt i32 %53, 0
  br i1 %54, label %57, label %55

55:                                               ; preds = %_PyFrame_GetFrameObject.exit.thread.i
  %56 = add nuw i32 %53, 1
  store i32 %56, ptr %.0.i8.i, align 8, !tbaa !94
  br label %57

57:                                               ; preds = %55, %_PyFrame_GetFrameObject.exit.thread.i
  %58 = tail call i32 (ptr, ptr, ptr, ...) @_PySys_Audit(ptr noundef %49, ptr noundef nonnull @.str.119, ptr noundef nonnull @.str.120, ptr noundef nonnull %.0.i8.i)
  %59 = icmp slt i32 %58, 0
  br i1 %59, label %60, label %sys__getframe_impl.exit

60:                                               ; preds = %57
  %61 = load i32, ptr %.0.i8.i, align 8, !tbaa !94
  %.not.i.i = icmp sgt i32 %61, -1
  br i1 %.not.i.i, label %62, label %sys__getframe_impl.exit

62:                                               ; preds = %60
  %63 = add nsw i32 %61, -1
  store i32 %63, ptr %.0.i8.i, align 8, !tbaa !94
  %64 = icmp eq i32 %63, 0
  br i1 %64, label %65, label %sys__getframe_impl.exit

65:                                               ; preds = %62
  tail call void @_Py_Dealloc(ptr noundef nonnull %.0.i8.i) #15
  br label %sys__getframe_impl.exit

sys__getframe_impl.exit:                          ; preds = %65, %62, %60, %57, %_PyFrame_GetFrameObject.exit.i, %.thread.i, %12, %4
  %.09 = phi ptr [ null, %12 ], [ null, %4 ], [ null, %.thread.i ], [ %.0.i8.i, %57 ], [ null, %_PyFrame_GetFrameObject.exit.i ], [ null, %60 ], [ null, %62 ], [ null, %65 ]
  ret ptr %.09
}